target datalayout = "e-m:e-p270:32:32-p271:32:32-p272:64:64-i64:64-i128:128-f80:128-n8:16:32:64-S128"
target triple = "x86_64-pc-linux-gnu"

%struct._lv_array_t = type { ptr, i32, i32, i32, i8 }
%struct.lv_event_list_t = type { %struct._lv_array_t, i8 }
%struct._lv_event_dsc_t = type { ptr, ptr, i32 }

; Function Attrs: nounwind uwtable
define internal i32 @event_array_size(ptr noundef %0) #0 {
  %2 = alloca ptr, align 8
  store ptr %0, ptr %2, align 8, !tbaa !33
  %3 = load ptr, ptr %2, align 8, !tbaa !33
  %4 = getelementptr inbounds nuw %struct.lv_event_list_t, ptr %3, i32 0, i32 0
  %5 = call i32 @lv_array_size(ptr noundef %4)
  ret i32 %5
}

; Function Attrs: nounwind uwtable
define ptr @lv_event_add(ptr noundef %0, ptr noundef %1, i32 noundef %2, ptr noundef %3) #0 {
  %5 = alloca ptr, align 8
  %6 = alloca ptr, align 8
  %7 = alloca i32, align 4
  %8 = alloca ptr, align 8
  %9 = alloca ptr, align 8
  store ptr %0, ptr %5, align 8, !tbaa !33
  store ptr %1, ptr %6, align 8, !tbaa !33
  store i32 %2, ptr %7, align 4, !tbaa !37
  store ptr %3, ptr %8, align 8, !tbaa !33
  call void @llvm.lifetime.start.p0(i64 8, ptr %9) #4
  %10 = call ptr @lv_malloc(i64 noundef 24)
  store ptr %10, ptr %9, align 8, !tbaa !38
  br label %11

11:                                               ; preds = %4
  %12 = load ptr, ptr %9, align 8, !tbaa !38
  %13 = icmp ne ptr %12, null
  br i1 %13, label %20, label %14

14:                                               ; preds = %11
  br label %15

15:                                               ; preds = %14
  br label %16

16:                                               ; preds = %15
  br label %17

17:                                               ; preds = %16
  br label %18

18:                                               ; preds = %19, %17
  br label %19

19:                                               ; preds = %18
  br label %18

20:                                               ; preds = %11
  br label %21

21:                                               ; preds = %20
  br label %22

22:                                               ; preds = %21
  %23 = load ptr, ptr %6, align 8, !tbaa !33
  %24 = load ptr, ptr %9, align 8, !tbaa !38
  %25 = getelementptr inbounds nuw %struct._lv_event_dsc_t, ptr %24, i32 0, i32 0
  store ptr %23, ptr %25, align 8, !tbaa !40
  %26 = load i32, ptr %7, align 4, !tbaa !37
  %27 = load ptr, ptr %9, align 8, !tbaa !38
  %28 = getelementptr inbounds nuw %struct._lv_event_dsc_t, ptr %27, i32 0, i32 2
  store i32 %26, ptr %28, align 8, !tbaa !42
  %29 = load ptr, ptr %8, align 8, !tbaa !33
  %30 = load ptr, ptr %9, align 8, !tbaa !38
  %31 = getelementptr inbounds nuw %struct._lv_event_dsc_t, ptr %30, i32 0, i32 1
  store ptr %29, ptr %31, align 8, !tbaa !46
  %32 = load ptr, ptr %5, align 8, !tbaa !33
  %33 = call i32 @event_array_size(ptr noundef %32)
  %34 = icmp eq i32 %33, 0
  br i1 %34, label %35, label %38

35:                                               ; preds = %22
  %36 = load ptr, ptr %5, align 8, !tbaa !33
  %37 = getelementptr inbounds nuw %struct.lv_event_list_t, ptr %36, i32 0, i32 0
  call void @lv_array_init(ptr noundef %37, i32 noundef 1, i32 noundef 8)
  br label %38

38:                                               ; preds = %35, %22
  %39 = load ptr, ptr %5, align 8, !tbaa !33
  %40 = getelementptr inbounds nuw %struct.lv_event_list_t, ptr %39, i32 0, i32 0
  %41 = call i32 @lv_array_push_back(ptr noundef %40, ptr noundef %9)
  %42 = load ptr, ptr %9, align 8, !tbaa !38
  call void @llvm.lifetime.end.p0(i64 8, ptr %9) #4
  ret ptr %42
}