; Function Attrs: nounwind uwtable
define ptr @lv_event_add(ptr noundef %0, ptr noundef %1, i32 noundef %2, ptr noundef %3) local_unnamed_addr #2 {
  %5 = alloca ptr, align 8
  call void @llvm.lifetime.start.p0(i64 8, ptr nonnull %5) #12
  %6 = tail call ptr @lv_malloc(i64 noundef 24) #12
  store ptr %6, ptr %5, align 8, !tbaa !36
  %.not = icmp eq ptr %6, null
  br i1 %.not, label %.preheader, label %7

.preheader:                                       ; preds = %4, %.preheader
  br label %.preheader

7:                                                ; preds = %4
  store ptr %1, ptr %6, align 8, !tbaa !38
  %8 = getelementptr inbounds nuw i8, ptr %6, i64 16
  store i32 %2, ptr %8, align 8, !tbaa !40
  %9 = getelementptr inbounds nuw i8, ptr %6, i64 8
  store ptr %3, ptr %9, align 8, !tbaa !42
  %10 = tail call i32 @lv_array_size(ptr noundef %0) #12
  %11 = icmp eq i32 %10, 0
  br i1 %11, label %12, label %13

12:                                               ; preds = %7
  tail call void @lv_array_init(ptr noundef %0, i32 noundef 1, i32 noundef 8) #12
  br label %13

13:                                               ; preds = %12, %7
  %14 = call i32 @lv_array_push_back(ptr noundef %0, ptr noundef nonnull %5) #12
  %15 = load ptr, ptr %5, align 8, !tbaa !36
  call void @llvm.lifetime.end.p0(i64 8, ptr nonnull %5) #12
  ret ptr %15
}